target datalayout = "e-m:e-p270:32:32-p271:32:32-p272:64:64-i64:64-i128:128-f80:128-n8:16:32:64-S128"
target triple = "x86_64-pc-linux-gnu"

%struct.TypeCacheEntry = type { i32, i32, i16, i8, i8, i8, i8, i32, i32, i32, i32, i32, i32, i32, i32, i32, i32, i32, i32, i32, i32, %struct.FmgrInfo, %struct.FmgrInfo, %struct.FmgrInfo, %struct.FmgrInfo, ptr, i64, ptr, i32, i32, %struct.FmgrInfo, %struct.FmgrInfo, %struct.FmgrInfo, ptr, i32, i32, ptr, i32, ptr, ptr }
%struct.FmgrInfo = type { ptr, i32, i16, i8, i8, i8, ptr, ptr, ptr }
%struct.HASH_SEQ_STATUS = type { ptr, i32, ptr, i8, i32 }

@TypeCacheHash = internal global ptr null, align 8
@RelIdToTypeIdCacheHash = internal global ptr null, align 8

; Function Attrs: nounwind uwtable
define internal void @delete_rel_type_cache_if_needed(ptr noundef %0) #0 {
  %2 = alloca ptr, align 8
  %3 = alloca i8, align 1
  store ptr %0, ptr %2, align 8
  %4 = load ptr, ptr %2, align 8
  %5 = getelementptr inbounds nuw %struct.TypeCacheEntry, ptr %4, i32 0, i32 6
  %6 = load i8, ptr %5, align 1
  %7 = sext i8 %6 to i32
  %8 = icmp ne i32 %7, 99
  br i1 %8, label %9, label %10

9:                                                ; preds = %1
  br label %33

10:                                               ; preds = %1
  %11 = load ptr, ptr %2, align 8
  %12 = getelementptr inbounds nuw %struct.TypeCacheEntry, ptr %11, i32 0, i32 37
  %13 = load i32, ptr %12, align 8
  %14 = and i32 %13, 1
  %15 = icmp ne i32 %14, 0
  br i1 %15, label %32, label %16

16:                                               ; preds = %10
  %17 = load ptr, ptr %2, align 8
  %18 = getelementptr inbounds nuw %struct.TypeCacheEntry, ptr %17, i32 0, i32 37
  %19 = load i32, ptr %18, align 8
  %20 = and i32 %19, -1572866
  %21 = icmp ne i32 %20, 0
  br i1 %21, label %32, label %22

22:                                               ; preds = %16
  %23 = load ptr, ptr %2, align 8
  %24 = getelementptr inbounds nuw %struct.TypeCacheEntry, ptr %23, i32 0, i32 25
  %25 = load ptr, ptr %24, align 8
  %26 = icmp eq ptr %25, null
  br i1 %26, label %27, label %32

27:                                               ; preds = %22
  call void @llvm.lifetime.start.p0(i64 1, ptr %3) #11
  %28 = load ptr, ptr @RelIdToTypeIdCacheHash, align 8
  %29 = load ptr, ptr %2, align 8
  %30 = getelementptr inbounds nuw %struct.TypeCacheEntry, ptr %29, i32 0, i32 7
  %31 = call ptr @hash_search(ptr noundef %28, ptr noundef %30, i32 noundef 2, ptr noundef %3)
  call void @llvm.lifetime.end.p0(i64 1, ptr %3) #11
  br label %33

32:                                               ; preds = %22, %16, %10
  br label %33

33:                                               ; preds = %9, %32, %27
  ret void
}

; Function Attrs: nounwind uwtable
define internal void @TypeCacheTypCallback(i64 noundef %0, i32 noundef %1, i32 noundef %2) #0 {
  %4 = alloca i64, align 8
  %5 = alloca i32, align 4
  %6 = alloca i32, align 4
  %7 = alloca %struct.HASH_SEQ_STATUS, align 8
  %8 = alloca ptr, align 8
  %9 = alloca i8, align 1
  store i64 %0, ptr %4, align 8
  store i32 %1, ptr %5, align 4
  store i32 %2, ptr %6, align 4
  call void @llvm.lifetime.start.p0(i64 32, ptr %7) #11
  call void @llvm.lifetime.start.p0(i64 8, ptr %8) #11
  %10 = load i32, ptr %6, align 4
  %11 = icmp eq i32 %10, 0
  br i1 %11, label %12, label %14

12:                                               ; preds = %3
  %13 = load ptr, ptr @TypeCacheHash, align 8
  call void @hash_seq_init(ptr noundef %7, ptr noundef %13)
  br label %17

14:                                               ; preds = %3
  %15 = load ptr, ptr @TypeCacheHash, align 8
  %16 = load i32, ptr %6, align 4
  call void @hash_seq_init_with_hash_value(ptr noundef %7, ptr noundef %15, i32 noundef %16)
  br label %17

17:                                               ; preds = %14, %12
  br label %18

18:                                               ; preds = %36, %17
  %19 = call ptr @hash_seq_search(ptr noundef %7)
  store ptr %19, ptr %8, align 8
  %20 = icmp ne ptr %19, null
  br i1 %20, label %21, label %37

21:                                               ; preds = %18
  call void @llvm.lifetime.start.p0(i64 1, ptr %9) #11
  %22 = load ptr, ptr %8, align 8
  %23 = getelementptr inbounds nuw %struct.TypeCacheEntry, ptr %22, i32 0, i32 37
  %24 = load i32, ptr %23, align 8
  %25 = and i32 %24, 1
  %26 = icmp ne i32 %25, 0
  %27 = zext i1 %26 to i8
  store i8 %27, ptr %9, align 1
  %28 = load ptr, ptr %8, align 8
  %29 = getelementptr inbounds nuw %struct.TypeCacheEntry, ptr %28, i32 0, i32 37
  %30 = load i32, ptr %29, align 8
  %31 = and i32 %30, -524290
  store i32 %31, ptr %29, align 8
  %32 = load i8, ptr %9, align 1, !range !4, !noundef !5
  %33 = trunc i8 %32 to i1
  br i1 %33, label %34, label %36

34:                                               ; preds = %21
  %35 = load ptr, ptr %8, align 8
  call void @delete_rel_type_cache_if_needed(ptr noundef %35)
  br label %36

36:                                               ; preds = %34, %21
  call void @llvm.lifetime.end.p0(i64 1, ptr %9) #11
  br label %18, !llvm.loop !10

37:                                               ; preds = %18
  call void @llvm.lifetime.end.p0(i64 8, ptr %8) #11
  call void @llvm.lifetime.end.p0(i64 32, ptr %7) #11
  ret void
}