; Function Attrs: nounwind uwtable
define internal void @TypeCacheTypCallback(i64 %0, i32 %1, i32 noundef %2) #0 {
  %4 = alloca i8, align 1
  %5 = alloca %struct.HASH_SEQ_STATUS, align 8
  call void @llvm.lifetime.start.p0(i64 32, ptr nonnull %5) #16
  %6 = icmp eq i32 %2, 0
  %7 = load ptr, ptr @TypeCacheHash, align 8
  br i1 %6, label %8, label %9

8:                                                ; preds = %3
  call void @hash_seq_init(ptr noundef nonnull %5, ptr noundef %7) #16
  br label %10

9:                                                ; preds = %3
  call void @hash_seq_init_with_hash_value(ptr noundef nonnull %5, ptr noundef %7, i32 noundef %2) #16
  br label %10

10:                                               ; preds = %9, %8
  %11 = call ptr @hash_seq_search(ptr noundef nonnull %5) #16
  %.not7 = icmp eq ptr %11, null
  br i1 %.not7, label %._crit_edge, label %.lr.ph

.lr.ph:                                           ; preds = %10, %delete_rel_type_cache_if_needed.exit
  %12 = phi ptr [ %29, %delete_rel_type_cache_if_needed.exit ], [ %11, %10 ]
  %13 = getelementptr inbounds nuw i8, ptr %12, i64 464
  %14 = load i32, ptr %13, align 8
  %15 = and i32 %14, 1
  %.not6 = icmp eq i32 %15, 0
  %16 = and i32 %14, -524290
  store i32 %16, ptr %13, align 8
  br i1 %.not6, label %delete_rel_type_cache_if_needed.exit, label %17

17:                                               ; preds = %.lr.ph
  %18 = getelementptr inbounds nuw i8, ptr %12, i64 13
  %19 = load i8, ptr %18, align 1
  %.not.i = icmp eq i8 %19, 99
  %20 = and i32 %14, -1572866
  %or.cond.i = icmp eq i32 %20, 0
  %or.cond = and i1 %or.cond.i, %.not.i
  br i1 %or.cond, label %21, label %delete_rel_type_cache_if_needed.exit

21:                                               ; preds = %17
  %22 = getelementptr inbounds nuw i8, ptr %12, i64 264
  %23 = load ptr, ptr %22, align 8
  %24 = icmp eq ptr %23, null
  br i1 %24, label %25, label %delete_rel_type_cache_if_needed.exit

25:                                               ; preds = %21
  call void @llvm.lifetime.start.p0(i64 1, ptr nonnull %4) #16
  %26 = load ptr, ptr @RelIdToTypeIdCacheHash, align 8
  %27 = getelementptr inbounds nuw i8, ptr %12, i64 16
  %28 = call ptr @hash_search(ptr noundef %26, ptr noundef nonnull %27, i32 noundef 2, ptr noundef nonnull %4) #16
  call void @llvm.lifetime.end.p0(i64 1, ptr nonnull %4) #16
  br label %delete_rel_type_cache_if_needed.exit

delete_rel_type_cache_if_needed.exit:             ; preds = %25, %21, %17, %.lr.ph
  %29 = call ptr @hash_seq_search(ptr noundef nonnull %5) #16
  %.not = icmp eq ptr %29, null
  br i1 %.not, label %._crit_edge, label %.lr.ph, !llvm.loop !9

._crit_edge:                                      ; preds = %delete_rel_type_cache_if_needed.exit, %10
  call void @llvm.lifetime.end.p0(i64 32, ptr nonnull %5) #16
  ret void
}